target datalayout = "e-m:e-p270:32:32-p271:32:32-p272:64:64-i64:64-i128:128-f80:128-n8:16:32:64-S128"
target triple = "x86_64-pc-linux-gnu"

%"struct.rocksdb::Unsigned128" = type { i64, i64 }

; Function Attrs: inlinehint mustprogress nounwind uwtable
define linkonce_odr void @_ZN7rocksdb11Unsigned128C2Emm(ptr noundef nonnull align 8 dereferenceable(16) %0, i64 noundef %1, i64 noundef %2) unnamed_addr #3 comdat align 2 {
  %4 = alloca ptr, align 8
  %5 = alloca i64, align 8
  %6 = alloca i64, align 8
  store ptr %0, ptr %4, align 8, !tbaa !34
  store i64 %1, ptr %5, align 8, !tbaa !11
  store i64 %2, ptr %6, align 8, !tbaa !11
  %7 = load ptr, ptr %4, align 8
  %8 = load i64, ptr %5, align 8, !tbaa !11
  %9 = getelementptr inbounds nuw %"struct.rocksdb::Unsigned128", ptr %7, i32 0, i32 0
  store i64 %8, ptr %9, align 8, !tbaa !36
  %10 = load i64, ptr %6, align 8, !tbaa !11
  %11 = getelementptr inbounds nuw %"struct.rocksdb::Unsigned128", ptr %7, i32 0, i32 1
  store i64 %10, ptr %11, align 8, !tbaa !38
  ret void
}

; Function Attrs: inlinehint mustprogress nounwind uwtable
define internal noundef i64 @_ZN7rocksdb12_GLOBAL__N_114XXH3_avalancheEm(i64 noundef %0) #3 {
  %2 = alloca i64, align 8
  store i64 %0, ptr %2, align 8, !tbaa !11
  %3 = load i64, ptr %2, align 8, !tbaa !11
  %4 = lshr i64 %3, 37
  %5 = load i64, ptr %2, align 8, !tbaa !11
  %6 = xor i64 %5, %4
  store i64 %6, ptr %2, align 8, !tbaa !11
  %7 = load i64, ptr %2, align 8, !tbaa !11
  %8 = mul i64 %7, 1609587791953885689
  store i64 %8, ptr %2, align 8, !tbaa !11
  %9 = load i64, ptr %2, align 8, !tbaa !11
  %10 = lshr i64 %9, 32
  %11 = load i64, ptr %2, align 8, !tbaa !11
  %12 = xor i64 %11, %10
  store i64 %12, ptr %2, align 8, !tbaa !11
  %13 = load i64, ptr %2, align 8, !tbaa !11
  ret i64 %13
}

; Function Attrs: inlinehint mustprogress nounwind uwtable
define linkonce_odr noundef i64 @_ZN7rocksdb15EndianSwapValueImEET_S1_(i64 noundef %0) #3 comdat {
  %2 = alloca i64, align 8
  store i64 %0, ptr %2, align 8, !tbaa !11
  %3 = load i64, ptr %2, align 8, !tbaa !11
  %4 = call i64 @llvm.bswap.i64(i64 %3)
  ret i64 %4
}

; Function Attrs: inlinehint mustprogress nounwind uwtable
define linkonce_odr noundef i32 @_ZN7rocksdb11Lower32of64Em(i64 noundef %0) #3 comdat {
  %2 = alloca i64, align 8
  store i64 %0, ptr %2, align 8, !tbaa !11
  %3 = load i64, ptr %2, align 8, !tbaa !11
  %4 = trunc i64 %3 to i32
  ret i32 %4
}

; Function Attrs: inlinehint mustprogress nounwind uwtable
define linkonce_odr noundef i64 @_ZN7rocksdb12Upper64of128ENS_11Unsigned128E(i64 %0, i64 %1) #3 comdat {
  %3 = alloca %"struct.rocksdb::Unsigned128", align 8
  %4 = getelementptr inbounds nuw { i64, i64 }, ptr %3, i32 0, i32 0
  store i64 %0, ptr %4, align 8
  %5 = getelementptr inbounds nuw { i64, i64 }, ptr %3, i32 0, i32 1
  store i64 %1, ptr %5, align 8
  %6 = getelementptr inbounds nuw %"struct.rocksdb::Unsigned128", ptr %3, i32 0, i32 1
  %7 = load i64, ptr %6, align 8, !tbaa !38
  ret i64 %7
}

; Function Attrs: inlinehint mustprogress nounwind uwtable
define linkonce_odr noundef i64 @_ZN7rocksdb12Lower64of128ENS_11Unsigned128E(i64 %0, i64 %1) #3 comdat {
  %3 = alloca %"struct.rocksdb::Unsigned128", align 8
  %4 = getelementptr inbounds nuw { i64, i64 }, ptr %3, i32 0, i32 0
  store i64 %0, ptr %4, align 8
  %5 = getelementptr inbounds nuw { i64, i64 }, ptr %3, i32 0, i32 1
  store i64 %1, ptr %5, align 8
  %6 = getelementptr inbounds nuw %"struct.rocksdb::Unsigned128", ptr %3, i32 0, i32 0
  %7 = load i64, ptr %6, align 8, !tbaa !36
  ret i64 %7
}

; Function Attrs: inlinehint mustprogress uwtable
define linkonce_odr { i64, i64 } @_ZN7rocksdb15Multiply64to128Emm(i64 noundef %0, i64 noundef %1) #0 comdat {
  %3 = alloca %"struct.rocksdb::Unsigned128", align 8
  %4 = alloca i64, align 8
  %5 = alloca i64, align 8
  %6 = alloca i64, align 8
  %7 = alloca i64, align 8
  %8 = alloca i64, align 8
  store i64 %0, ptr %4, align 8, !tbaa !11
  store i64 %1, ptr %5, align 8, !tbaa !11
  call void @llvm.lifetime.start.p0(i64 8, ptr %6) #21
  %9 = load i64, ptr %5, align 8, !tbaa !11
  %10 = and i64 %9, 4294967295
  %11 = load i64, ptr %4, align 8, !tbaa !11
  %12 = and i64 %11, 4294967295
  %13 = mul i64 %10, %12
  store i64 %13, ptr %6, align 8, !tbaa !11
  call void @llvm.lifetime.start.p0(i64 8, ptr %7) #21
  %14 = load i64, ptr %6, align 8, !tbaa !11
  %15 = and i64 %14, 4294967295
  store i64 %15, ptr %7, align 8, !tbaa !11
  %16 = load i64, ptr %6, align 8, !tbaa !11
  %17 = lshr i64 %16, 32
  store i64 %17, ptr %6, align 8, !tbaa !11
  %18 = load i64, ptr %5, align 8, !tbaa !11
  %19 = and i64 %18, 4294967295
  %20 = load i64, ptr %4, align 8, !tbaa !11
  %21 = lshr i64 %20, 32
  %22 = mul i64 %19, %21
  %23 = load i64, ptr %6, align 8, !tbaa !11
  %24 = add i64 %23, %22
  store i64 %24, ptr %6, align 8, !tbaa !11
  call void @llvm.lifetime.start.p0(i64 8, ptr %8) #21
  %25 = load i64, ptr %5, align 8, !tbaa !11
  %26 = lshr i64 %25, 32
  %27 = load i64, ptr %4, align 8, !tbaa !11
  %28 = and i64 %27, 4294967295
  %29 = mul i64 %26, %28
  store i64 %29, ptr %8, align 8, !tbaa !11
  %30 = load i64, ptr %8, align 8, !tbaa !11
  %31 = and i64 %30, 4294967295
  %32 = load i64, ptr %6, align 8, !tbaa !11
  %33 = add i64 %32, %31
  store i64 %33, ptr %6, align 8, !tbaa !11
  %34 = load i64, ptr %6, align 8, !tbaa !11
  %35 = shl i64 %34, 32
  %36 = load i64, ptr %7, align 8, !tbaa !11
  %37 = or i64 %36, %35
  store i64 %37, ptr %7, align 8, !tbaa !11
  %38 = load i64, ptr %6, align 8, !tbaa !11
  %39 = lshr i64 %38, 32
  store i64 %39, ptr %6, align 8, !tbaa !11
  %40 = load i64, ptr %8, align 8, !tbaa !11
  %41 = lshr i64 %40, 32
  %42 = load i64, ptr %6, align 8, !tbaa !11
  %43 = add i64 %42, %41
  store i64 %43, ptr %6, align 8, !tbaa !11
  %44 = load i64, ptr %5, align 8, !tbaa !11
  %45 = lshr i64 %44, 32
  %46 = load i64, ptr %4, align 8, !tbaa !11
  %47 = lshr i64 %46, 32
  %48 = mul i64 %45, %47
  %49 = load i64, ptr %6, align 8, !tbaa !11
  %50 = add i64 %49, %48
  store i64 %50, ptr %6, align 8, !tbaa !11
  %51 = load i64, ptr %7, align 8, !tbaa !11
  %52 = load i64, ptr %6, align 8, !tbaa !11
  call void @_ZN7rocksdb11Unsigned128C2Emm(ptr noundef nonnull align 8 dereferenceable(16) %3, i64 noundef %51, i64 noundef %52)
  call void @llvm.lifetime.end.p0(i64 8, ptr %8) #21
  call void @llvm.lifetime.end.p0(i64 8, ptr %7) #21
  call void @llvm.lifetime.end.p0(i64 8, ptr %6) #21
  %53 = load { i64, i64 }, ptr %3, align 8
  ret { i64, i64 } %53
}

; Function Attrs: mustprogress uwtable
define void @_ZN7rocksdb17BijectiveHash2x64EmmmPmS0_(i64 noundef %0, i64 noundef %1, i64 noundef %2, ptr noundef %3, ptr noundef %4) #1 {
  %6 = alloca i64, align 8
  %7 = alloca i64, align 8
  %8 = alloca i64, align 8
  %9 = alloca ptr, align 8
  %10 = alloca ptr, align 8
  %11 = alloca i64, align 8
  %12 = alloca i64, align 8
  %13 = alloca %"struct.rocksdb::Unsigned128", align 8
  %14 = alloca i64, align 8
  %15 = alloca %"struct.rocksdb::Unsigned128", align 8
  %16 = alloca i64, align 8
  %17 = alloca %"struct.rocksdb::Unsigned128", align 8
  %18 = alloca %"struct.rocksdb::Unsigned128", align 8
  %19 = alloca %"struct.rocksdb::Unsigned128", align 8
  %20 = alloca %"struct.rocksdb::Unsigned128", align 8
  store i64 %0, ptr %6, align 8, !tbaa !11
  store i64 %1, ptr %7, align 8, !tbaa !11
  store i64 %2, ptr %8, align 8, !tbaa !11
  store ptr %3, ptr %9, align 8, !tbaa !39
  store ptr %4, ptr %10, align 8, !tbaa !39
  call void @llvm.lifetime.start.p0(i64 8, ptr %11) #21
  %21 = load i64, ptr %8, align 8, !tbaa !11
  %22 = sub i64 6455697860950631241, %21
  store i64 %22, ptr %11, align 8, !tbaa !11
  call void @llvm.lifetime.start.p0(i64 8, ptr %12) #21
  %23 = load i64, ptr %8, align 8, !tbaa !11
  %24 = add i64 -4466874330221494952, %23
  store i64 %24, ptr %12, align 8, !tbaa !11
  call void @llvm.lifetime.start.p0(i64 16, ptr %13) #21
  %25 = load i64, ptr %7, align 8, !tbaa !11
  %26 = load i64, ptr %6, align 8, !tbaa !11
  %27 = xor i64 %25, %26
  %28 = load i64, ptr %11, align 8, !tbaa !11
  %29 = xor i64 %27, %28
  %30 = call { i64, i64 } @_ZN7rocksdb15Multiply64to128Emm(i64 noundef %29, i64 noundef -7046029288634856825)
  %31 = getelementptr inbounds nuw { i64, i64 }, ptr %13, i32 0, i32 0
  %32 = extractvalue { i64, i64 } %30, 0
  store i64 %32, ptr %31, align 8
  %33 = getelementptr inbounds nuw { i64, i64 }, ptr %13, i32 0, i32 1
  %34 = extractvalue { i64, i64 } %30, 1
  store i64 %34, ptr %33, align 8
  call void @llvm.lifetime.start.p0(i64 8, ptr %14) #21
  call void @llvm.memcpy.p0.p0.i64(ptr align 8 %15, ptr align 8 %13, i64 16, i1 false), !tbaa.struct !41
  %35 = getelementptr inbounds nuw { i64, i64 }, ptr %15, i32 0, i32 0
  %36 = load i64, ptr %35, align 8
  %37 = getelementptr inbounds nuw { i64, i64 }, ptr %15, i32 0, i32 1
  %38 = load i64, ptr %37, align 8
  %39 = call noundef i64 @_ZN7rocksdb12Lower64of128ENS_11Unsigned128E(i64 %36, i64 %38)
  store i64 %39, ptr %14, align 8, !tbaa !11
  call void @llvm.lifetime.start.p0(i64 8, ptr %16) #21
  call void @llvm.memcpy.p0.p0.i64(ptr align 8 %17, ptr align 8 %13, i64 16, i1 false), !tbaa.struct !41
  %40 = getelementptr inbounds nuw { i64, i64 }, ptr %17, i32 0, i32 0
  %41 = load i64, ptr %40, align 8
  %42 = getelementptr inbounds nuw { i64, i64 }, ptr %17, i32 0, i32 1
  %43 = load i64, ptr %42, align 8
  %44 = call noundef i64 @_ZN7rocksdb12Upper64of128ENS_11Unsigned128E(i64 %41, i64 %43)
  store i64 %44, ptr %16, align 8, !tbaa !11
  %45 = load i64, ptr %14, align 8, !tbaa !11
  %46 = add i64 %45, 270215977642229760
  store i64 %46, ptr %14, align 8, !tbaa !11
  %47 = load i64, ptr %12, align 8, !tbaa !11
  %48 = load i64, ptr %6, align 8, !tbaa !11
  %49 = xor i64 %48, %47
  store i64 %49, ptr %6, align 8, !tbaa !11
  %50 = load i64, ptr %6, align 8, !tbaa !11
  %51 = load i64, ptr %6, align 8, !tbaa !11
  %52 = call noundef i32 @_ZN7rocksdb11Lower32of64Em(i64 noundef %51)
  %53 = zext i32 %52 to i64
  %54 = mul i64 %53, 2246822518
  %55 = add i64 %50, %54
  %56 = load i64, ptr %16, align 8, !tbaa !11
  %57 = add i64 %56, %55
  store i64 %57, ptr %16, align 8, !tbaa !11
  %58 = load i64, ptr %16, align 8, !tbaa !11
  %59 = call noundef i64 @_ZN7rocksdb15EndianSwapValueImEET_S1_(i64 noundef %58)
  %60 = load i64, ptr %14, align 8, !tbaa !11
  %61 = xor i64 %60, %59
  store i64 %61, ptr %14, align 8, !tbaa !11
  call void @llvm.lifetime.start.p0(i64 16, ptr %18) #21
  %62 = load i64, ptr %14, align 8, !tbaa !11
  %63 = call { i64, i64 } @_ZN7rocksdb15Multiply64to128Emm(i64 noundef %62, i64 noundef -4417276706812531889)
  %64 = getelementptr inbounds nuw { i64, i64 }, ptr %18, i32 0, i32 0
  %65 = extractvalue { i64, i64 } %63, 0
  store i64 %65, ptr %64, align 8
  %66 = getelementptr inbounds nuw { i64, i64 }, ptr %18, i32 0, i32 1
  %67 = extractvalue { i64, i64 } %63, 1
  store i64 %67, ptr %66, align 8
  call void @llvm.memcpy.p0.p0.i64(ptr align 8 %13, ptr align 8 %18, i64 16, i1 false), !tbaa.struct !41
  call void @llvm.lifetime.end.p0(i64 16, ptr %18) #21
  call void @llvm.memcpy.p0.p0.i64(ptr align 8 %19, ptr align 8 %13, i64 16, i1 false), !tbaa.struct !41
  %68 = getelementptr inbounds nuw { i64, i64 }, ptr %19, i32 0, i32 0
  %69 = load i64, ptr %68, align 8
  %70 = getelementptr inbounds nuw { i64, i64 }, ptr %19, i32 0, i32 1
  %71 = load i64, ptr %70, align 8
  %72 = call noundef i64 @_ZN7rocksdb12Lower64of128ENS_11Unsigned128E(i64 %69, i64 %71)
  store i64 %72, ptr %14, align 8, !tbaa !11
  call void @llvm.memcpy.p0.p0.i64(ptr align 8 %20, ptr align 8 %13, i64 16, i1 false), !tbaa.struct !41
  %73 = getelementptr inbounds nuw { i64, i64 }, ptr %20, i32 0, i32 0
  %74 = load i64, ptr %73, align 8
  %75 = getelementptr inbounds nuw { i64, i64 }, ptr %20, i32 0, i32 1
  %76 = load i64, ptr %75, align 8
  %77 = call noundef i64 @_ZN7rocksdb12Upper64of128ENS_11Unsigned128E(i64 %74, i64 %76)
  %78 = load i64, ptr %16, align 8, !tbaa !11
  %79 = mul i64 %78, -4417276706812531889
  %80 = add i64 %77, %79
  store i64 %80, ptr %16, align 8, !tbaa !11
  %81 = load i64, ptr %14, align 8, !tbaa !11
  %82 = call noundef i64 @_ZN7rocksdb12_GLOBAL__N_114XXH3_avalancheEm(i64 noundef %81)
  %83 = load ptr, ptr %10, align 8, !tbaa !39
  store i64 %82, ptr %83, align 8, !tbaa !11
  %84 = load i64, ptr %16, align 8, !tbaa !11
  %85 = call noundef i64 @_ZN7rocksdb12_GLOBAL__N_114XXH3_avalancheEm(i64 noundef %84)
  %86 = load ptr, ptr %9, align 8, !tbaa !39
  store i64 %85, ptr %86, align 8, !tbaa !11
  call void @llvm.lifetime.end.p0(i64 8, ptr %16) #21
  call void @llvm.lifetime.end.p0(i64 8, ptr %14) #21
  call void @llvm.lifetime.end.p0(i64 16, ptr %13) #21
  call void @llvm.lifetime.end.p0(i64 8, ptr %12) #21
  call void @llvm.lifetime.end.p0(i64 8, ptr %11) #21
  ret void
}

; Function Attrs: mustprogress uwtable
define void @_ZN7rocksdb17BijectiveHash2x64EmmPmS0_(i64 noundef %0, i64 noundef %1, ptr noundef %2, ptr noundef %3) #1 {
  %5 = alloca i64, align 8
  %6 = alloca i64, align 8
  %7 = alloca ptr, align 8
  %8 = alloca ptr, align 8
  store i64 %0, ptr %5, align 8, !tbaa !11
  store i64 %1, ptr %6, align 8, !tbaa !11
  store ptr %2, ptr %7, align 8, !tbaa !39
  store ptr %3, ptr %8, align 8, !tbaa !39
  %9 = load i64, ptr %5, align 8, !tbaa !11
  %10 = load i64, ptr %6, align 8, !tbaa !11
  %11 = load ptr, ptr %7, align 8, !tbaa !39
  %12 = load ptr, ptr %8, align 8, !tbaa !39
  call void @_ZN7rocksdb17BijectiveHash2x64EmmmPmS0_(i64 noundef %9, i64 noundef %10, i64 noundef 0, ptr noundef %11, ptr noundef %12)
  ret void
}