; Function Attrs: mustprogress nofree norecurse nosync nounwind willreturn memory(argmem: write) uwtable
define void @_ZN7rocksdb17BijectiveHash2x64EmmPmS0_(i64 noundef %0, i64 noundef %1, ptr noundef writeonly captures(none) initializes((0, 8)) %2, ptr noundef writeonly captures(none) initializes((0, 8)) %3) local_unnamed_addr #9 {
  %5 = xor i64 %0, %1
  %6 = xor i64 %5, 6455697860950631241
  %7 = and i64 %6, 4294967295
  %8 = mul nuw i64 %7, 2246822535
  %9 = and i64 %8, 4294967295
  %10 = lshr i64 %8, 32
  %11 = lshr i64 %6, 32
  %12 = mul nuw i64 %11, 2246822535
  %13 = add nuw i64 %10, %12
  %14 = mul nuw i64 %7, 2654435761
  %15 = and i64 %14, 4294967295
  %16 = add nuw i64 %13, %15
  %17 = shl i64 %16, 32
  %18 = lshr i64 %16, 32
  %19 = lshr i64 %14, 32
  %20 = mul nuw i64 %11, 2654435761
  %21 = or disjoint i64 %9, 270215977642229760
  %22 = add i64 %21, %17
  %23 = xor i64 %0, -4466874330221494952
  %24 = and i64 %23, 4294967295
  %25 = mul nuw i64 %24, 2246822518
  %26 = add i64 %25, %23
  %27 = add i64 %26, %20
  %28 = add i64 %27, %19
  %29 = add i64 %28, %18
  %30 = tail call noundef i64 @llvm.bswap.i64(i64 %29)
  %31 = xor i64 %30, %22
  %32 = and i64 %31, 4294967295
  %33 = mul nuw nsw i64 %32, 668265295
  %34 = and i64 %33, 4294967295
  %35 = lshr i64 %33, 32
  %36 = lshr i64 %31, 32
  %37 = mul nuw nsw i64 %36, 668265295
  %38 = add nuw nsw i64 %35, %37
  %39 = mul nuw i64 %32, 3266489917
  %40 = and i64 %39, 4294967295
  %41 = add nuw nsw i64 %38, %40
  %42 = shl i64 %41, 32
  %43 = or disjoint i64 %42, %34
  %44 = lshr i64 %41, 32
  %45 = lshr i64 %39, 32
  %46 = mul nuw i64 %36, 3266489917
  %47 = mul i64 %29, -4417276706812531889
  %48 = add i64 %46, %47
  %49 = add i64 %48, %45
  %50 = add i64 %49, %44
  %51 = lshr i64 %42, 37
  %52 = xor i64 %51, %43
  %53 = mul i64 %52, 1609587791953885689
  %54 = lshr i64 %53, 32
  %55 = xor i64 %54, %53
  store i64 %55, ptr %3, align 8, !tbaa !27
  %56 = lshr i64 %50, 37
  %57 = xor i64 %56, %50
  %58 = mul i64 %57, 1609587791953885689
  %59 = lshr i64 %58, 32
  %60 = xor i64 %59, %58
  store i64 %60, ptr %2, align 8, !tbaa !27
  ret void
}